Certificate:
    Data:
        Version: 3 (0x2)
        Serial Number: 1 (0x1)
        Signature Algorithm: sha256WithRSAEncryption
        Issuer: C=SE, L=Gothenburg, O=Pagero, OU=CA, CN=ca.pagero.com/emailAddress=support@pagero.com
        Validity
            Not Before: Oct 13 05:26:45 2020 GMT
            Not After : Oct 13 05:26:45 2022 GMT
        Subject: C=SE, O=Pagero, OU=Integration, CN=connectivity.pagero.com/emailAddress=support@pagero.com
        Subject Public Key Info:
            Public Key Algorithm: rsaEncryption
                RSA Public-Key: (4096 bit)
                Modulus:
                    00:d6:6b:a3:b4:c2:f3:d3:92:7f:72:01:bb:62:21:
                    ea:f5:b6:de:b6:57:13:7e:ab:8f:18:21:d8:7c:23:
                    43:4f:65:53:c2:bd:14:a7:82:ad:bd:4e:37:ac:d8:
                    37:47:9a:ab:bc:e7:20:ab:52:6c:15:6c:0c:8d:37:
                    50:ec:b3:d7:54:e0:f4:da:c3:c1:e2:73:49:e2:a3:
                    ab:ba:55:ef:26:87:47:f6:74:aa:9b:26:d4:60:a9:
                    42:35:87:c7:27:26:f9:7d:e4:a9:a4:ba:30:04:4c:
                    30:85:34:c6:05:e1:42:f5:c4:af:10:fd:86:3e:5b:
                    6b:78:56:22:ab:f3:9e:0a:84:2d:ef:37:22:8b:bf:
                    8f:f8:ab:c5:2b:51:32:5b:05:0d:14:18:8a:6f:3f:
                    ca:83:5f:39:f1:9a:39:ee:c1:f4:1f:db:cc:5f:6b:
                    90:dc:45:1d:05:c0:2a:c8:32:5e:70:d5:c4:d6:21:
                    3b:70:78:87:a8:f0:b7:dd:9a:e3:41:2f:24:98:4b:
                    3c:d6:fe:73:54:ab:43:0c:97:9f:d9:ff:06:d1:95:
                    39:4f:e7:87:d3:52:ab:55:20:9f:e0:2b:46:64:1f:
                    c1:7f:d1:7e:fe:b6:c0:a8:da:b3:20:a6:49:4d:d0:
                    a2:27:41:48:aa:fa:e5:8b:67:f6:5d:05:e9:fb:a9:
                    a6:8e:c3:30:7c:e3:9f:9b:77:a2:0d:f9:2d:94:22:
                    55:be:9d:6d:73:d7:da:7a:7f:94:62:a1:1a:33:a8:
                    6d:31:79:3a:f5:64:0e:0a:bc:9a:0c:6c:14:5d:81:
                    b4:91:d0:84:84:83:6c:4e:09:bd:c5:d5:d6:7f:1c:
                    ce:b0:1a:fd:72:0f:dc:02:47:be:03:2b:bf:b9:35:
                    2d:67:be:73:df:e1:5b:5a:5b:d3:3e:87:dd:45:d8:
                    d1:aa:50:89:f6:bf:43:fb:98:62:e3:67:5f:2a:b4:
                    4e:7e:48:e9:07:78:75:45:48:d1:3c:1e:54:c4:2b:
                    50:66:91:55:6e:ea:2b:bc:3a:37:be:f9:ab:88:46:
                    f7:3b:49:85:1e:07:46:17:03:a9:8c:7c:1a:90:df:
                    06:30:45:ba:d4:3e:ae:23:a9:99:76:56:4b:de:69:
                    52:d4:da:0e:8f:1e:11:16:ad:c8:87:eb:0d:6c:78:
                    14:ce:7a:83:fc:1b:a8:6d:f7:17:db:d5:10:6f:c9:
                    b0:84:62:85:f4:af:37:3a:f1:34:bc:01:0b:e5:9a:
                    29:22:44:e7:9c:a8:c6:aa:fa:f4:1c:8d:39:28:96:
                    13:f7:e1:8d:ed:e6:09:b1:f6:53:96:23:3b:78:4a:
                    39:6a:9c:e3:a9:e5:e0:42:9d:e4:5c:d2:a1:1a:52:
                    5f:a4:cb
                Exponent: 65537 (0x10001)
        X509v3 extensions:
            X509v3 Basic Constraints: 
                CA:FALSE
            Netscape Cert Type: 
                SSL Server
            Netscape Comment: 
                OpenSSL Generated Server Certificate
            X509v3 Subject Key Identifier: 
                BF:1B:2B:EC:48:9C:52:AC:FD:55:39:EC:E6:A0:08:C6:F6:D3:EB:1B
            X509v3 Authority Key Identifier: 
                keyid:54:E3:A6:92:44:2F:52:51:68:E4:9A:54:7B:4C:F8:2A:46:67:02:01
                DirName:/C=SE/L=Gothenburg/O=Pagero/OU=CA/CN=ca.pagero.com/emailAddress=support@pagero.com
                serial:4A:DA:FE:BE:A4:6C:FB:20:F3:94:CA:E6:7A:32:FC:19:83:60:75:3A

            X509v3 Extended Key Usage: 
                TLS Web Server Authentication
            X509v3 Key Usage: 
                Digital Signature, Key Encipherment
    Signature Algorithm: sha256WithRSAEncryption
         94:00:87:56:19:b7:12:43:99:a6:d7:f6:48:2e:c8:2e:ce:ab:
         76:8b:1a:01:d5:65:9e:a8:ec:74:66:bd:b1:16:12:ee:cd:6e:
         48:0f:92:8c:b2:df:c6:39:37:1e:27:bc:d4:15:2a:5f:87:1b:
         e0:4f:00:90:64:04:fd:e2:8d:fb:23:40:da:f6:a9:64:dc:60:
         e9:44:11:d1:ae:0d:34:e2:18:df:a5:a1:11:ab:db:4b:3e:e0:
         0b:24:12:94:fc:25:cc:1f:ea:69:51:e9:15:36:88:7b:89:d1:
         e9:00:f2:a4:34:1f:b5:f6:19:52:bc:b8:59:44:d3:15:c1:46:
         26:de:f2:c2:08:aa:6b:41:64:cd:49:c2:04:5c:8c:69:85:77:
         0c:3f:cb:6a:71:71:8d:73:e4:f1:26:d5:4c:2b:a1:f3:91:1e:
         2d:d9:c3:89:84:7e:7b:08:90:ae:fd:02:1f:35:3c:59:fd:68:
         ae:3e:6c:05:98:3a:6d:3b:18:17:60:e6:a8:0b:87:07:7a:60:
         5f:99:7f:d9:c8:2c:38:af:b9:47:ca:aa:95:96:ad:f8:d2:3c:
         5b:aa:5b:c1:32:ef:36:ff:a7:c0:c3:d4:b0:e2:e6:6a:ca:ff:
         37:42:9a:2c:7b:bc:7c:7b:db:5a:87:fe:33:0f:d4:64:f2:c9:
         33:e0:7a:8b:16:4f:ff:f7:73:63:2e:5f:27:97:1e:9c:e9:35:
         1a:8c:e3:fc:78:9f:2a:80:da:e1:79:be:9d:71:8a:b2:8b:df:
         70:d0:c6:67:d7:0a:d6:a8:ca:ce:1a:7e:95:2e:20:29:0a:03:
         4d:17:33:42:51:b3:94:76:e8:b0:1c:62:4c:51:1f:31:a0:a7:
         be:51:e7:ea:07:8a:5e:73:48:0b:84:dc:37:a3:0b:ef:ad:1a:
         db:2e:76:c1:cd:12:56:91:15:98:75:27:c4:ce:27:e7:1d:79:
         c7:52:f5:22:6a:b6:c5:72:c7:7f:98:fe:06:4d:a9:6b:52:2d:
         fd:d1:59:05:84:42:d0:06:10:cd:18:e2:66:8a:4f:19:0f:18:
         21:fa:f6:c6:b2:42:9f:09:2d:96:1c:00:40:73:30:5a:e6:c6:
         28:36:26:8f:c7:8c:4e:1f:aa:30:c4:26:d8:f5:7b:44:48:6b:
         81:c4:2e:b7:ba:1c:46:85:fd:d9:fd:e7:2a:bb:9d:06:73:7e:
         c3:9e:ca:c6:56:e6:c6:51:5c:49:cb:be:d6:73:0d:82:34:b4:
         ff:1e:4a:0d:40:35:ad:87:da:97:75:d0:1e:10:10:ed:ab:aa:
         25:ec:8b:eb:f0:ac:e5:57:77:00:08:c2:fa:89:7c:44:05:dd:
         fb:21:62:8b:82:5d:01:8d
-----BEGIN CERTIFICATE-----
MIIGxDCCBKygAwIBAgIBATANBgkqhkiG9w0BAQsFADB7MQswCQYDVQQGEwJTRTET
MBEGA1UEBxMKR290aGVuYnVyZzEPMA0GA1UEChMGUGFnZXJvMQswCQYDVQQLEwJD
QTEWMBQGA1UEAxMNY2EucGFnZXJvLmNvbTEhMB8GCSqGSIb3DQEJARYSc3VwcG9y
dEBwYWdlcm8uY29tMB4XDTIwMTAxMzA1MjY0NVoXDTIyMTAxMzA1MjY0NVoweTEL
MAkGA1UEBhMCU0UxDzANBgNVBAoTBlBhZ2VybzEUMBIGA1UECxMLSW50ZWdyYXRp
b24xIDAeBgNVBAMTF2Nvbm5lY3Rpdml0eS5wYWdlcm8uY29tMSEwHwYJKoZIhvcN
AQkBFhJzdXBwb3J0QHBhZ2Vyby5jb20wggIiMA0GCSqGSIb3DQEBAQUAA4ICDwAw
ggIKAoICAQDWa6O0wvPTkn9yAbtiIer1tt62VxN+q48YIdh8I0NPZVPCvRSngq29
Tjes2DdHmqu85yCrUmwVbAyNN1Dss9dU4PTaw8Hic0nio6u6Ve8mh0f2dKqbJtRg
qUI1h8cnJvl95KmkujAETDCFNMYF4UL1xK8Q/YY+W2t4ViKr854KhC3vNyKLv4/4
q8UrUTJbBQ0UGIpvP8qDXznxmjnuwfQf28xfa5DcRR0FwCrIMl5w1cTWITtweIeo
8LfdmuNBLySYSzzW/nNUq0MMl5/Z/wbRlTlP54fTUqtVIJ/gK0ZkH8F/0X7+tsCo
2rMgpklN0KInQUiq+uWLZ/ZdBen7qaaOwzB845+bd6IN+S2UIlW+nW1z19p6f5Ri
oRozqG0xeTr1ZA4KvJoMbBRdgbSR0ISEg2xOCb3F1dZ/HM6wGv1yD9wCR74DK7+5
NS1nvnPf4VtaW9M+h91F2NGqUIn2v0P7mGLjZ18qtE5+SOkHeHVFSNE8HlTEK1Bm
kVVu6iu8Oje++auIRvc7SYUeB0YXA6mMfBqQ3wYwRbrUPq4jqZl2VkveaVLU2g6P
HhEWrciH6w1seBTOeoP8G6ht9xfb1RBvybCEYoX0rzc68TS8AQvlmikiROecqMaq
+vQcjTkolhP34Y3t5gmx9lOWIzt4SjlqnOOp5eBCneRc0qEaUl+kywIDAQABo4IB
UzCCAU8wCQYDVR0TBAIwADARBglghkgBhvhCAQEEBAMCBkAwMwYJYIZIAYb4QgEN
BCYWJE9wZW5TU0wgR2VuZXJhdGVkIFNlcnZlciBDZXJ0aWZpY2F0ZTAdBgNVHQ4E
FgQUvxsr7EicUqz9VTns5qAIxvbT6xswgbgGA1UdIwSBsDCBrYAUVOOmkkQvUlFo
5JpUe0z4KkZnAgGhf6R9MHsxCzAJBgNVBAYTAlNFMRMwEQYDVQQHEwpHb3RoZW5i
dXJnMQ8wDQYDVQQKEwZQYWdlcm8xCzAJBgNVBAsTAkNBMRYwFAYDVQQDEw1jYS5w
YWdlcm8uY29tMSEwHwYJKoZIhvcNAQkBFhJzdXBwb3J0QHBhZ2Vyby5jb22CFEra
/r6kbPsg85TK5noy/BmDYHU6MBMGA1UdJQQMMAoGCCsGAQUFBwMBMAsGA1UdDwQE
AwIFoDANBgkqhkiG9w0BAQsFAAOCAgEAlACHVhm3EkOZptf2SC7ILs6rdosaAdVl
nqjsdGa9sRYS7s1uSA+SjLLfxjk3Hie81BUqX4cb4E8AkGQE/eKN+yNA2vapZNxg
6UQR0a4NNOIY36WhEavbSz7gCyQSlPwlzB/qaVHpFTaIe4nR6QDypDQftfYZUry4
WUTTFcFGJt7ywgiqa0FkzUnCBFyMaYV3DD/LanFxjXPk8SbVTCuh85EeLdnDiYR+
ewiQrv0CHzU8Wf1orj5sBZg6bTsYF2DmqAuHB3pgX5l/2cgsOK+5R8qqlZat+NI8
W6pbwTLvNv+nwMPUsOLmasr/N0KaLHu8fHvbWof+Mw/UZPLJM+B6ixZP//dzYy5f
J5cenOk1Gozj/HifKoDa4Xm+nXGKsovfcNDGZ9cK1qjKzhp+lS4gKQoDTRczQlGz
lHbosBxiTFEfMaCnvlHn6geKXnNIC4TcN6ML760a2y52wc0SVpEVmHUnxM4n5x15
x1L1Imq2xXLHf5j+Bk2pa1It/dFZBYRC0AYQzRjiZopPGQ8YIfr2xrJCnwktlhwA
QHMwWubGKDYmj8eMTh+qMMQm2PV7REhrgcQut7ocRoX92f3nKrudBnN+w57Kxlbm
xlFcScu+1nMNgjS0/x5KDUA1rYfal3XQHhAQ7auqJeyL6/Cs5Vd3AAjC+ol8RAXd
+yFii4JdAY0=
-----END CERTIFICATE-----
